target datalayout = "e-m:e-p270:32:32-p271:32:32-p272:64:64-i64:64-i128:128-f80:128-n8:16:32:64-S128"
target triple = "x86_64-pc-linux-gnu"

%"class.cvc5::internal::NodeTemplate" = type { ptr }

; Function Attrs: mustprogress uwtable
define linkonce_odr hidden void @_ZN4cvc58internal4expr9NodeValue3incEv(ptr noundef nonnull align 8 dereferenceable(24) %0) #4 comdat align 2 {
  %2 = alloca ptr, align 8
  store ptr %0, ptr %2, align 8, !tbaa !176
  %3 = load ptr, ptr %2, align 8
  %4 = load i64, ptr %3, align 8
  %5 = lshr i64 %4, 40
  %6 = and i64 %5, 1048575
  %7 = trunc i64 %6 to i32
  %8 = icmp ult i32 %7, 1048574
  %9 = zext i1 %8 to i64
  %10 = call i64 @llvm.expect.i64(i64 %9, i64 1)
  %11 = icmp ne i64 %10, 0
  br i1 %11, label %12, label %24

12:                                               ; preds = %1
  %13 = load i64, ptr %3, align 8
  %14 = lshr i64 %13, 40
  %15 = and i64 %14, 1048575
  %16 = trunc i64 %15 to i32
  %17 = add i32 %16, 1
  %18 = zext i32 %17 to i64
  %19 = load i64, ptr %3, align 8
  %20 = and i64 %18, 1048575
  %21 = shl i64 %20, 40
  %22 = and i64 %19, -1152920405095219201
  %23 = or i64 %22, %21
  store i64 %23, ptr %3, align 8
  br label %46

24:                                               ; preds = %1
  %25 = load i64, ptr %3, align 8
  %26 = lshr i64 %25, 40
  %27 = and i64 %26, 1048575
  %28 = trunc i64 %27 to i32
  %29 = icmp eq i32 %28, 1048574
  %30 = zext i1 %29 to i64
  %31 = call i64 @llvm.expect.i64(i64 %30, i64 0)
  %32 = icmp ne i64 %31, 0
  br i1 %32, label %33, label %45

33:                                               ; preds = %24
  %34 = load i64, ptr %3, align 8
  %35 = lshr i64 %34, 40
  %36 = and i64 %35, 1048575
  %37 = trunc i64 %36 to i32
  %38 = add i32 %37, 1
  %39 = zext i32 %38 to i64
  %40 = load i64, ptr %3, align 8
  %41 = and i64 %39, 1048575
  %42 = shl i64 %41, 40
  %43 = and i64 %40, -1152920405095219201
  %44 = or i64 %43, %42
  store i64 %44, ptr %3, align 8
  call void @_ZN4cvc58internal4expr9NodeValue20markRefCountMaxedOutEv(ptr noundef nonnull align 8 dereferenceable(24) %3)
  br label %45

45:                                               ; preds = %33, %24
  br label %46

46:                                               ; preds = %45, %12
  ret void
}

; Function Attrs: mustprogress uwtable
define linkonce_odr hidden void @_ZN4cvc58internal12NodeTemplateILb1EEC2ERKS2_(ptr noundef nonnull align 8 dereferenceable(8) %0, ptr noundef nonnull align 8 dereferenceable(8) %1) unnamed_addr #4 comdat align 2 {
  %3 = alloca ptr, align 8
  %4 = alloca ptr, align 8
  store ptr %0, ptr %3, align 8, !tbaa !70
  store ptr %1, ptr %4, align 8, !tbaa !70
  %5 = load ptr, ptr %3, align 8
  %6 = load ptr, ptr %4, align 8, !tbaa !70
  %7 = getelementptr inbounds nuw %"class.cvc5::internal::NodeTemplate", ptr %6, i32 0, i32 0
  %8 = load ptr, ptr %7, align 8, !tbaa !77
  %9 = getelementptr inbounds nuw %"class.cvc5::internal::NodeTemplate", ptr %5, i32 0, i32 0
  store ptr %8, ptr %9, align 8, !tbaa !77
  %10 = getelementptr inbounds nuw %"class.cvc5::internal::NodeTemplate", ptr %5, i32 0, i32 0
  %11 = load ptr, ptr %10, align 8, !tbaa !77
  call void @_ZN4cvc58internal4expr9NodeValue3incEv(ptr noundef nonnull align 8 dereferenceable(24) %11)
  ret void
}

; Function Attrs: mustprogress uwtable
define hidden noundef ptr @_ZN4cvc58internal6theory11quantifiers23mkTermTupleEnumeratorRdENS0_12NodeTemplateILb1EEEPKNS2_22TermTupleEnumeratorEnvEPNS2_14RelevantDomainE(ptr noundef %0, ptr noundef %1, ptr noundef %2) #4 personality ptr @__gxx_personality_v0 {
  %4 = alloca ptr, align 8
  %5 = alloca ptr, align 8
  %6 = alloca ptr, align 8
  %7 = alloca %"class.cvc5::internal::NodeTemplate", align 8
  %8 = alloca ptr, align 8
  %9 = alloca i32, align 4
  %10 = alloca i1, align 1
  store ptr %0, ptr %4, align 8, !tbaa !70
  store ptr %1, ptr %5, align 8, !tbaa !165
  store ptr %2, ptr %6, align 8, !tbaa !167
  %11 = call noalias noundef nonnull ptr @_Znwm(i64 noundef 176) #21
  store i1 true, ptr %10, align 1
  invoke void @_ZN4cvc58internal12NodeTemplateILb1EEC2ERKS2_(ptr noundef nonnull align 8 dereferenceable(8) %7, ptr noundef nonnull align 8 dereferenceable(8) %0)
          to label %12 unwind label %16

12:                                               ; preds = %3
  %13 = load ptr, ptr %5, align 8, !tbaa !165
  %14 = load ptr, ptr %6, align 8, !tbaa !167
  invoke void @_ZN4cvc58internal6theory11quantifiers21TermTupleEnumeratorRDC2ENS0_12NodeTemplateILb1EEEPKNS2_22TermTupleEnumeratorEnvEPNS2_14RelevantDomainE(ptr noundef nonnull align 8 dereferenceable(176) %11, ptr noundef %7, ptr noundef %13, ptr noundef %14)
          to label %15 unwind label %20

15:                                               ; preds = %12
  store i1 false, ptr %10, align 1
  call void @_ZN4cvc58internal12NodeTemplateILb1EED2Ev(ptr noundef nonnull align 8 dereferenceable(8) %7) #3
  ret ptr %11

16:                                               ; preds = %3
  %17 = landingpad { ptr, i32 }
          cleanup
  %18 = extractvalue { ptr, i32 } %17, 0
  store ptr %18, ptr %8, align 8
  %19 = extractvalue { ptr, i32 } %17, 1
  store i32 %19, ptr %9, align 4
  br label %24

20:                                               ; preds = %12
  %21 = landingpad { ptr, i32 }
          cleanup
  %22 = extractvalue { ptr, i32 } %21, 0
  store ptr %22, ptr %8, align 8
  %23 = extractvalue { ptr, i32 } %21, 1
  store i32 %23, ptr %9, align 4
  call void @_ZN4cvc58internal12NodeTemplateILb1EED2Ev(ptr noundef nonnull align 8 dereferenceable(8) %7) #3
  br label %24

24:                                               ; preds = %20, %16
  %25 = load i1, ptr %10, align 1
  br i1 %25, label %26, label %27

26:                                               ; preds = %24
  call void @_ZdlPvm(ptr noundef %11, i64 noundef 176) #22
  br label %27

27:                                               ; preds = %26, %24
  br label %28

28:                                               ; preds = %27
  %29 = load ptr, ptr %8, align 8
  %30 = load i32, ptr %9, align 4
  %31 = insertvalue { ptr, i32 } poison, ptr %29, 0
  %32 = insertvalue { ptr, i32 } %31, i32 %30, 1
  resume { ptr, i32 } %32
}